target datalayout = "e-m:e-p270:32:32-p271:32:32-p272:64:64-i64:64-i128:128-f80:128-n8:16:32:64-S128"
target triple = "x86_64-pc-linux-gnu"

%struct.Abc_Ntk_t_ = type { i32, i32, ptr, ptr, ptr, ptr, ptr, ptr, ptr, ptr, ptr, ptr, ptr, [11 x i32], i32, i32, i32, i32, ptr, i32, ptr, ptr, i32, i32, i32, double, i32, %struct.Vec_Int_t_, ptr, ptr, ptr, ptr, ptr, float, i32, ptr, ptr, ptr, ptr, ptr, ptr, ptr, ptr, ptr, ptr, ptr, ptr, ptr, ptr, ptr, ptr, ptr, ptr, ptr, ptr, ptr, ptr }
%struct.Vec_Int_t_ = type { i32, i32, ptr }
%struct.Vec_Ptr_t_ = type { i32, i32, ptr }
%struct.Abc_Des_t_ = type { ptr, ptr, ptr, ptr, ptr, ptr, ptr }

; Function Attrs: inlinehint nounwind uwtable
define internal ptr @Vec_PtrEntry(ptr noundef %0, i32 noundef %1) #3 {
  %3 = alloca ptr, align 8
  %4 = alloca i32, align 4
  store ptr %0, ptr %3, align 8, !tbaa !58
  store i32 %1, ptr %4, align 4, !tbaa !27
  %5 = load ptr, ptr %3, align 8, !tbaa !58
  %6 = getelementptr inbounds nuw %struct.Vec_Ptr_t_, ptr %5, i32 0, i32 2
  %7 = load ptr, ptr %6, align 8, !tbaa !71
  %8 = load i32, ptr %4, align 4, !tbaa !27
  %9 = sext i32 %8 to i64
  %10 = getelementptr inbounds ptr, ptr %7, i64 %9
  %11 = load ptr, ptr %10, align 8, !tbaa !72
  ret ptr %11
}

; Function Attrs: inlinehint nounwind uwtable
define internal i32 @Vec_PtrSize(ptr noundef %0) #3 {
  %2 = alloca ptr, align 8
  store ptr %0, ptr %2, align 8, !tbaa !58
  %3 = load ptr, ptr %2, align 8, !tbaa !58
  %4 = getelementptr inbounds nuw %struct.Vec_Ptr_t_, ptr %3, i32 0, i32 1
  %5 = load i32, ptr %4, align 4, !tbaa !59
  ret i32 %5
}

; Function Attrs: nounwind uwtable
define i32 @Abc_NtkIsAcyclicHierarchy(ptr noundef %0) #0 {
  %2 = alloca ptr, align 8
  %3 = alloca ptr, align 8
  %4 = alloca i32, align 4
  %5 = alloca i32, align 4
  store ptr %0, ptr %2, align 8, !tbaa !3
  call void @llvm.lifetime.start.p0(i64 8, ptr %3) #8
  call void @llvm.lifetime.start.p0(i64 4, ptr %4) #8
  call void @llvm.lifetime.start.p0(i64 4, ptr %5) #8
  store i32 0, ptr %4, align 4, !tbaa !27
  br label %6

6:                                                ; preds = %30, %1
  %7 = load i32, ptr %4, align 4, !tbaa !27
  %8 = load ptr, ptr %2, align 8, !tbaa !3
  %9 = getelementptr inbounds nuw %struct.Abc_Ntk_t_, ptr %8, i32 0, i32 20
  %10 = load ptr, ptr %9, align 8, !tbaa !82
  %11 = getelementptr inbounds nuw %struct.Abc_Des_t_, ptr %10, i32 0, i32 3
  %12 = load ptr, ptr %11, align 8, !tbaa !83
  %13 = call i32 @Vec_PtrSize(ptr noundef %12)
  %14 = icmp slt i32 %7, %13
  br i1 %14, label %15, label %23

15:                                               ; preds = %6
  %16 = load ptr, ptr %2, align 8, !tbaa !3
  %17 = getelementptr inbounds nuw %struct.Abc_Ntk_t_, ptr %16, i32 0, i32 20
  %18 = load ptr, ptr %17, align 8, !tbaa !82
  %19 = getelementptr inbounds nuw %struct.Abc_Des_t_, ptr %18, i32 0, i32 3
  %20 = load ptr, ptr %19, align 8, !tbaa !83
  %21 = load i32, ptr %4, align 4, !tbaa !27
  %22 = call ptr @Vec_PtrEntry(ptr noundef %20, i32 noundef %21)
  store ptr %22, ptr %3, align 8, !tbaa !3
  br label %23

23:                                               ; preds = %15, %6
  %24 = phi i1 [ false, %6 ], [ true, %15 ]
  br i1 %24, label %25, label %33

25:                                               ; preds = %23
  %26 = load ptr, ptr %3, align 8, !tbaa !3
  %27 = getelementptr inbounds nuw %struct.Abc_Ntk_t_, ptr %26, i32 0, i32 23
  store i32 0, ptr %27, align 4, !tbaa !80
  %28 = load ptr, ptr %3, align 8, !tbaa !3
  %29 = getelementptr inbounds nuw %struct.Abc_Ntk_t_, ptr %28, i32 0, i32 22
  store i32 0, ptr %29, align 8, !tbaa !79
  br label %30

30:                                               ; preds = %25
  %31 = load i32, ptr %4, align 4, !tbaa !27
  %32 = add nsw i32 %31, 1
  store i32 %32, ptr %4, align 4, !tbaa !27
  br label %6, !llvm.loop !86

33:                                               ; preds = %23
  %34 = load ptr, ptr %2, align 8, !tbaa !3
  %35 = getelementptr inbounds nuw %struct.Abc_Ntk_t_, ptr %34, i32 0, i32 23
  store i32 1, ptr %35, align 4, !tbaa !80
  %36 = load ptr, ptr %2, align 8, !tbaa !3
  %37 = call i32 @Abc_NtkIsAcyclicHierarchy_rec(ptr noundef %36)
  store i32 %37, ptr %5, align 4, !tbaa !27
  %38 = load ptr, ptr %2, align 8, !tbaa !3
  %39 = getelementptr inbounds nuw %struct.Abc_Ntk_t_, ptr %38, i32 0, i32 23
  store i32 0, ptr %39, align 4, !tbaa !80
  store i32 0, ptr %4, align 4, !tbaa !27
  br label %40

40:                                               ; preds = %64, %33
  %41 = load i32, ptr %4, align 4, !tbaa !27
  %42 = load ptr, ptr %2, align 8, !tbaa !3
  %43 = getelementptr inbounds nuw %struct.Abc_Ntk_t_, ptr %42, i32 0, i32 20
  %44 = load ptr, ptr %43, align 8, !tbaa !82
  %45 = getelementptr inbounds nuw %struct.Abc_Des_t_, ptr %44, i32 0, i32 3
  %46 = load ptr, ptr %45, align 8, !tbaa !83
  %47 = call i32 @Vec_PtrSize(ptr noundef %46)
  %48 = icmp slt i32 %41, %47
  br i1 %48, label %49, label %57

49:                                               ; preds = %40
  %50 = load ptr, ptr %2, align 8, !tbaa !3
  %51 = getelementptr inbounds nuw %struct.Abc_Ntk_t_, ptr %50, i32 0, i32 20
  %52 = load ptr, ptr %51, align 8, !tbaa !82
  %53 = getelementptr inbounds nuw %struct.Abc_Des_t_, ptr %52, i32 0, i32 3
  %54 = load ptr, ptr %53, align 8, !tbaa !83
  %55 = load i32, ptr %4, align 4, !tbaa !27
  %56 = call ptr @Vec_PtrEntry(ptr noundef %54, i32 noundef %55)
  store ptr %56, ptr %3, align 8, !tbaa !3
  br label %57

57:                                               ; preds = %49, %40
  %58 = phi i1 [ false, %40 ], [ true, %49 ]
  br i1 %58, label %59, label %67

59:                                               ; preds = %57
  %60 = load ptr, ptr %3, align 8, !tbaa !3
  %61 = getelementptr inbounds nuw %struct.Abc_Ntk_t_, ptr %60, i32 0, i32 23
  store i32 0, ptr %61, align 4, !tbaa !80
  %62 = load ptr, ptr %3, align 8, !tbaa !3
  %63 = getelementptr inbounds nuw %struct.Abc_Ntk_t_, ptr %62, i32 0, i32 22
  store i32 0, ptr %63, align 8, !tbaa !79
  br label %64

64:                                               ; preds = %59
  %65 = load i32, ptr %4, align 4, !tbaa !27
  %66 = add nsw i32 %65, 1
  store i32 %66, ptr %4, align 4, !tbaa !27
  br label %40, !llvm.loop !87

67:                                               ; preds = %57
  %68 = load i32, ptr %5, align 4, !tbaa !27
  call void @llvm.lifetime.end.p0(i64 4, ptr %5) #8
  call void @llvm.lifetime.end.p0(i64 4, ptr %4) #8
  call void @llvm.lifetime.end.p0(i64 8, ptr %3) #8
  ret i32 %68
}