; Function Attrs: nofree nosync nounwind memory(readwrite, inaccessiblemem: none) uwtable
define range(i32 0, 2) i32 @Abc_NtkIsAcyclicHierarchy(ptr noundef captures(none) %0) local_unnamed_addr #4 {
  %2 = getelementptr inbounds nuw i8, ptr %0, i64 176
  %3 = load ptr, ptr %2, align 8, !tbaa !77
  %4 = getelementptr inbounds nuw i8, ptr %3, i64 24
  %5 = load ptr, ptr %4, align 8, !tbaa !78
  %6 = getelementptr i8, ptr %5, i64 4
  %.val19 = load i32, ptr %6, align 4, !tbaa !30
  %7 = icmp sgt i32 %.val19, 0
  br i1 %7, label %.lr.ph, label %.critedge

.lr.ph:                                           ; preds = %1
  %8 = getelementptr i8, ptr %5, i64 8
  %.val20 = load ptr, ptr %8, align 8, !tbaa !38
  %wide.trip.count = zext nneg i32 %.val19 to i64
  br label %9

9:                                                ; preds = %.lr.ph, %9
  %indvars.iv = phi i64 [ 0, %.lr.ph ], [ %indvars.iv.next, %9 ]
  %10 = getelementptr inbounds nuw ptr, ptr %.val20, i64 %indvars.iv
  %11 = load ptr, ptr %10, align 8, !tbaa !39
  %12 = getelementptr inbounds nuw i8, ptr %11, i64 196
  store i32 0, ptr %12, align 4, !tbaa !75
  %13 = getelementptr inbounds nuw i8, ptr %11, i64 192
  store i32 0, ptr %13, align 8, !tbaa !74
  %indvars.iv.next = add nuw nsw i64 %indvars.iv, 1
  %exitcond.not = icmp eq i64 %indvars.iv.next, %wide.trip.count
  br i1 %exitcond.not, label %.critedge, label %9, !llvm.loop !81

.critedge:                                        ; preds = %9, %1
  %14 = getelementptr inbounds nuw i8, ptr %0, i64 196
  store i32 1, ptr %14, align 4, !tbaa !75
  %15 = tail call i32 @Abc_NtkIsAcyclicHierarchy_rec(ptr noundef nonnull %0)
  store i32 0, ptr %14, align 4, !tbaa !75
  %16 = load ptr, ptr %2, align 8, !tbaa !77
  %17 = getelementptr inbounds nuw i8, ptr %16, i64 24
  %18 = load ptr, ptr %17, align 8, !tbaa !78
  %19 = getelementptr i8, ptr %18, i64 4
  %.val = load i32, ptr %19, align 4, !tbaa !30
  %20 = icmp sgt i32 %.val, 0
  br i1 %20, label %.lr.ph24, label %.critedge2

.lr.ph24:                                         ; preds = %.critedge
  %21 = getelementptr i8, ptr %18, i64 8
  %.val21 = load ptr, ptr %21, align 8, !tbaa !38
  %wide.trip.count29 = zext nneg i32 %.val to i64
  br label %22

22:                                               ; preds = %.lr.ph24, %22
  %indvars.iv26 = phi i64 [ 0, %.lr.ph24 ], [ %indvars.iv.next27, %22 ]
  %23 = getelementptr inbounds nuw ptr, ptr %.val21, i64 %indvars.iv26
  %24 = load ptr, ptr %23, align 8, !tbaa !39
  %25 = getelementptr inbounds nuw i8, ptr %24, i64 196
  store i32 0, ptr %25, align 4, !tbaa !75
  %26 = getelementptr inbounds nuw i8, ptr %24, i64 192
  store i32 0, ptr %26, align 8, !tbaa !74
  %indvars.iv.next27 = add nuw nsw i64 %indvars.iv26, 1
  %exitcond30.not = icmp eq i64 %indvars.iv.next27, %wide.trip.count29
  br i1 %exitcond30.not, label %.critedge2, label %22, !llvm.loop !82

.critedge2:                                       ; preds = %22, %.critedge
  ret i32 %15
}